target datalayout = "e-m:e-p270:32:32-p271:32:32-p272:64:64-i64:64-i128:128-f80:128-n8:16:32:64-S128"
target triple = "x86_64-pc-linux-gnu"

%struct.strbuf = type { i64, i64, ptr }
%struct.__va_list_tag = type { i32, i32, ptr, ptr }

@the_repository = external global ptr, align 8
@__const.set_config.buf = private unnamed_addr constant %struct.strbuf { i64 0, i64 0, ptr @strbuf_slopbuf }, align 8

; Function Attrs: inlinehint nounwind uwtable
define internal i32 @git_config_set_gently(ptr noundef %0, ptr noundef %1) #5 {
  %3 = alloca ptr, align 8
  %4 = alloca ptr, align 8
  store ptr %0, ptr %3, align 8, !tbaa !4
  store ptr %1, ptr %4, align 8, !tbaa !4
  %5 = load ptr, ptr @the_repository, align 8, !tbaa !43
  %6 = load ptr, ptr %3, align 8, !tbaa !4
  %7 = load ptr, ptr %4, align 8, !tbaa !4
  %8 = call i32 @repo_config_set_gently(ptr noundef %5, ptr noundef %6, ptr noundef %7)
  ret i32 %8
}

; Function Attrs: nounwind uwtable
define internal i32 @set_config(ptr noundef %0, ...) #0 {
  %2 = alloca ptr, align 8
  %3 = alloca %struct.strbuf, align 8
  %4 = alloca ptr, align 8
  %5 = alloca i32, align 4
  %6 = alloca [1 x %struct.__va_list_tag], align 16
  store ptr %0, ptr %2, align 8, !tbaa !4
  call void @llvm.lifetime.start.p0(i64 24, ptr %3) #12
  call void @llvm.memcpy.p0.p0.i64(ptr align 8 %3, ptr align 8 @__const.set_config.buf, i64 24, i1 false)
  call void @llvm.lifetime.start.p0(i64 8, ptr %4) #12
  call void @llvm.lifetime.start.p0(i64 4, ptr %5) #12
  call void @llvm.lifetime.start.p0(i64 24, ptr %6) #12
  %7 = getelementptr inbounds [1 x %struct.__va_list_tag], ptr %6, i64 0, i64 0
  call void @llvm.va_start.p0(ptr %7)
  %8 = load ptr, ptr %2, align 8, !tbaa !4
  %9 = getelementptr inbounds [1 x %struct.__va_list_tag], ptr %6, i64 0, i64 0
  call void @strbuf_vaddf(ptr noundef %3, ptr noundef %8, ptr noundef %9)
  %10 = getelementptr inbounds [1 x %struct.__va_list_tag], ptr %6, i64 0, i64 0
  call void @llvm.va_end.p0(ptr %10)
  %11 = getelementptr inbounds nuw %struct.strbuf, ptr %3, i32 0, i32 2
  %12 = load ptr, ptr %11, align 8, !tbaa !23
  %13 = call ptr @strchr(ptr noundef %12, i32 noundef 61) #13
  store ptr %13, ptr %4, align 8, !tbaa !4
  %14 = load ptr, ptr %4, align 8, !tbaa !4
  %15 = icmp ne ptr %14, null
  br i1 %15, label %16, label %19

16:                                               ; preds = %1
  %17 = load ptr, ptr %4, align 8, !tbaa !4
  %18 = getelementptr inbounds nuw i8, ptr %17, i32 1
  store ptr %18, ptr %4, align 8, !tbaa !4
  store i8 0, ptr %17, align 1, !tbaa !15
  br label %19

19:                                               ; preds = %16, %1
  %20 = getelementptr inbounds nuw %struct.strbuf, ptr %3, i32 0, i32 2
  %21 = load ptr, ptr %20, align 8, !tbaa !23
  %22 = load ptr, ptr %4, align 8, !tbaa !4
  %23 = call i32 @git_config_set_gently(ptr noundef %21, ptr noundef %22)
  store i32 %23, ptr %5, align 4, !tbaa !11
  call void @strbuf_release(ptr noundef %3)
  %24 = load i32, ptr %5, align 4, !tbaa !11
  call void @llvm.lifetime.end.p0(i64 24, ptr %6) #12
  call void @llvm.lifetime.end.p0(i64 4, ptr %5) #12
  call void @llvm.lifetime.end.p0(i64 8, ptr %4) #12
  call void @llvm.lifetime.end.p0(i64 24, ptr %3) #12
  ret i32 %24
}