; Function Attrs: nounwind uwtable
define internal i32 @set_config(ptr noundef %0, ...) unnamed_addr #2 {
  %2 = alloca %struct.strbuf, align 8
  %3 = alloca [1 x %struct.__va_list_tag], align 16
  call void @llvm.lifetime.start.p0(i64 24, ptr nonnull %2) #18
  call void @llvm.memcpy.p0.p0.i64(ptr noundef nonnull align 8 dereferenceable(24) %2, ptr noundef nonnull align 8 dereferenceable(24) @__const.cmd_diagnose.diagnostics_root, i64 24, i1 false)
  call void @llvm.lifetime.start.p0(i64 24, ptr nonnull %3) #18
  call void @llvm.va_start.p0(ptr nonnull %3)
  call void @strbuf_vaddf(ptr noundef nonnull %2, ptr noundef %0, ptr noundef nonnull %3) #18
  call void @llvm.va_end.p0(ptr nonnull %3)
  %4 = getelementptr inbounds nuw i8, ptr %2, i64 16
  %5 = load ptr, ptr %4, align 8, !tbaa !17
  %6 = call ptr @strchr(ptr noundef nonnull dereferenceable(1) %5, i32 noundef 61) #19
  %.not = icmp eq ptr %6, null
  br i1 %.not, label %9, label %7

7:                                                ; preds = %1
  %8 = getelementptr inbounds nuw i8, ptr %6, i64 1
  store i8 0, ptr %6, align 1, !tbaa !9
  %.pre = load ptr, ptr %4, align 8, !tbaa !17
  br label %9

9:                                                ; preds = %7, %1
  %10 = phi ptr [ %.pre, %7 ], [ %5, %1 ]
  %.0 = phi ptr [ %8, %7 ], [ null, %1 ]
  %11 = load ptr, ptr @the_repository, align 8, !tbaa !36
  %12 = call i32 @repo_config_set_gently(ptr noundef %11, ptr noundef %10, ptr noundef %.0) #18
  call void @strbuf_release(ptr noundef nonnull %2) #18
  call void @llvm.lifetime.end.p0(i64 24, ptr nonnull %3) #18
  call void @llvm.lifetime.end.p0(i64 24, ptr nonnull %2) #18
  ret i32 %12
}